target datalayout = "e-m:e-p270:32:32-p271:32:32-p272:64:64-i64:64-i128:128-f80:128-n8:16:32:64-S128"
target triple = "x86_64-pc-linux-gnu"

@ett_bacapp_tag = internal global i32 0, align 4
@.str.2605 = private unnamed_addr constant [7 x i8] c"%sNULL\00", align 1

; Function Attrs: null_pointer_is_valid sspstrong uwtable
define internal i32 @fNullTag(ptr noundef %0, ptr noundef %1, ptr noundef %2, i32 noundef %3, ptr noundef %4) #0 {
  %6 = alloca ptr, align 8
  %7 = alloca ptr, align 8
  %8 = alloca ptr, align 8
  %9 = alloca i32, align 4
  %10 = alloca ptr, align 8
  %11 = alloca i8, align 1
  %12 = alloca i8, align 1
  %13 = alloca i32, align 4
  %14 = alloca ptr, align 8
  store ptr %0, ptr %6, align 8
  store ptr %1, ptr %7, align 8
  store ptr %2, ptr %8, align 8
  store i32 %3, ptr %9, align 4
  store ptr %4, ptr %10, align 8
  call void @llvm.lifetime.start.p0(i64 1, ptr %11) #7
  call void @llvm.lifetime.start.p0(i64 1, ptr %12) #7
  call void @llvm.lifetime.start.p0(i64 4, ptr %13) #7
  call void @llvm.lifetime.start.p0(i64 8, ptr %14) #7
  %15 = load ptr, ptr %8, align 8
  %16 = load ptr, ptr %6, align 8
  %17 = load i32, ptr %9, align 4
  %18 = load i32, ptr @ett_bacapp_tag, align 4
  %19 = load ptr, ptr %10, align 8
  %20 = call ptr (ptr, ptr, i32, i32, i32, ptr, ptr, ...) @proto_tree_add_subtree_format(ptr noundef %15, ptr noundef %16, i32 noundef %17, i32 noundef 1, i32 noundef %18, ptr noundef null, ptr noundef @.str.2605, ptr noundef %19)
  store ptr %20, ptr %14, align 8
  %21 = load ptr, ptr %6, align 8
  %22 = load ptr, ptr %7, align 8
  %23 = load ptr, ptr %14, align 8
  %24 = load i32, ptr %9, align 4
  %25 = call i32 @fTagHeaderTree(ptr noundef %21, ptr noundef %22, ptr noundef %23, i32 noundef %24, ptr noundef %11, ptr noundef %12, ptr noundef %13)
  %26 = load i32, ptr %9, align 4
  %27 = add i32 %26, 1
  call void @llvm.lifetime.end.p0(i64 8, ptr %14) #7
  call void @llvm.lifetime.end.p0(i64 4, ptr %13) #7
  call void @llvm.lifetime.end.p0(i64 1, ptr %12) #7
  call void @llvm.lifetime.end.p0(i64 1, ptr %11) #7
  ret i32 %27
}