; Function Attrs: null_pointer_is_valid sspstrong uwtable
define internal fastcc noundef i32 @fNullTag(ptr noundef nonnull %0, ptr noundef %1, ptr noundef %2, i32 noundef %3, ptr noundef %4) unnamed_addr #0 {
  %6 = alloca i8, align 1
  %7 = alloca i8, align 1
  %8 = alloca i32, align 4
  call void @llvm.lifetime.start.p0(i64 1, ptr nonnull %6) #6
  call void @llvm.lifetime.start.p0(i64 1, ptr nonnull %7) #6
  call void @llvm.lifetime.start.p0(i64 4, ptr nonnull %8) #6
  %9 = load i32, ptr @ett_bacapp_tag, align 4
  %10 = tail call ptr (ptr, ptr, i32, i32, i32, ptr, ptr, ...) @proto_tree_add_subtree_format(ptr noundef %2, ptr noundef nonnull %0, i32 noundef %3, i32 noundef 1, i32 noundef %9, ptr noundef null, ptr noundef nonnull @.str.2605, ptr noundef %4)
  %11 = call fastcc i32 @fTagHeaderTree(ptr noundef %0, ptr noundef %1, ptr noundef %10, i32 noundef %3, ptr noundef nonnull %6, ptr noundef nonnull %7, ptr noundef nonnull %8)
  %12 = add i32 %3, 1
  call void @llvm.lifetime.end.p0(i64 4, ptr nonnull %8) #6
  call void @llvm.lifetime.end.p0(i64 1, ptr nonnull %7) #6
  call void @llvm.lifetime.end.p0(i64 1, ptr nonnull %6) #6
  ret i32 %12
}